target datalayout = "e-m:e-p270:32:32-p271:32:32-p272:64:64-i64:64-i128:128-f80:128-n8:16:32:64-S128"
target triple = "x86_64-pc-linux-gnu"

%"class.std::pmr::polymorphic_allocator.97" = type { ptr }
%"struct.std::_Head_base.106" = type { ptr }
%class.anon.107 = type { ptr }
%"class.std::unique_ptr.108" = type { %"struct.std::__uniq_ptr_data.109" }
%"struct.std::__uniq_ptr_data.109" = type { %"class.std::__uniq_ptr_impl.110" }
%"class.std::__uniq_ptr_impl.110" = type { %"class.std::tuple.111" }
%"class.std::tuple.111" = type { %"struct.std::_Tuple_impl.112" }
%"struct.std::_Tuple_impl.112" = type { %"struct.std::_Tuple_impl.113", %"struct.std::_Head_base.106" }
%"struct.std::_Tuple_impl.113" = type { %"struct.std::_Head_base.114" }
%"struct.std::_Head_base.114" = type { %class.anon.107 }

; Function Attrs: mustprogress nounwind uwtable
define internal noundef nonnull align 8 dereferenceable(8) ptr @_ZNSt10_Head_baseILm1EZN3pro7detailsL8allocateINS1_11compact_ptrIN5utils15LifetimeTracker7SessionENSt3pmr21polymorphic_allocatorISt4byteEEE7storageESA_JRSA_RKS6_EEEPT_RKT0_DpOT1_EUlPSC_E_Lb0EE7_M_headERSQ_(ptr noundef nonnull align 8 dereferenceable(8) %0) #7 align 2 {
  %2 = alloca ptr, align 8
  store ptr %0, ptr %2, align 8
  %3 = load ptr, ptr %2, align 8
  %4 = getelementptr inbounds %"struct.std::_Head_base.114", ptr %3, i32 0, i32 0
  ret ptr %4
}

; Function Attrs: mustprogress nounwind uwtable
define internal noundef nonnull align 8 dereferenceable(8) ptr @_ZNSt11_Tuple_implILm1EJZN3pro7detailsL8allocateINS1_11compact_ptrIN5utils15LifetimeTracker7SessionENSt3pmr21polymorphic_allocatorISt4byteEEE7storageESA_JRSA_RKS6_EEEPT_RKT0_DpOT1_EUlPSC_E_EE7_M_headERSQ_(ptr noundef nonnull align 8 dereferenceable(8) %0) #7 align 2 {
  %2 = alloca ptr, align 8
  store ptr %0, ptr %2, align 8
  %3 = load ptr, ptr %2, align 8
  %4 = call noundef nonnull align 8 dereferenceable(8) ptr @_ZNSt10_Head_baseILm1EZN3pro7detailsL8allocateINS1_11compact_ptrIN5utils15LifetimeTracker7SessionENSt3pmr21polymorphic_allocatorISt4byteEEE7storageESA_JRSA_RKS6_EEEPT_RKT0_DpOT1_EUlPSC_E_Lb0EE7_M_headERSQ_(ptr noundef nonnull align 8 dereferenceable(8) %3) #3
  ret ptr %4
}

; Function Attrs: mustprogress nounwind uwtable
define linkonce_odr dso_local noundef nonnull align 8 dereferenceable(8) ptr @_ZNSt10_Head_baseILm0EPN3pro7details11compact_ptrIN5utils15LifetimeTracker7SessionENSt3pmr21polymorphic_allocatorISt4byteEEE7storageELb0EE7_M_headERSD_(ptr noundef nonnull align 8 dereferenceable(8) %0) #7 comdat align 2 {
  %2 = alloca ptr, align 8
  store ptr %0, ptr %2, align 8
  %3 = load ptr, ptr %2, align 8
  %4 = getelementptr inbounds %"struct.std::_Head_base.106", ptr %3, i32 0, i32 0
  ret ptr %4
}

; Function Attrs: mustprogress nounwind uwtable
define internal noundef nonnull align 8 dereferenceable(8) ptr @_ZSt12__get_helperILm1EZN3pro7detailsL8allocateINS1_11compact_ptrIN5utils15LifetimeTracker7SessionENSt3pmr21polymorphic_allocatorISt4byteEEE7storageESA_JRSA_RKS6_EEEPT_RKT0_DpOT1_EUlPSC_E_JEERSI_RSt11_Tuple_implIXT_EJSI_DpSL_EE(ptr noundef nonnull align 8 dereferenceable(8) %0) #7 {
  %2 = alloca ptr, align 8
  store ptr %0, ptr %2, align 8
  %3 = load ptr, ptr %2, align 8
  %4 = call noundef nonnull align 8 dereferenceable(8) ptr @_ZNSt11_Tuple_implILm1EJZN3pro7detailsL8allocateINS1_11compact_ptrIN5utils15LifetimeTracker7SessionENSt3pmr21polymorphic_allocatorISt4byteEEE7storageESA_JRSA_RKS6_EEEPT_RKT0_DpOT1_EUlPSC_E_EE7_M_headERSQ_(ptr noundef nonnull align 8 dereferenceable(8) %3) #3
  ret ptr %4
}

; Function Attrs: mustprogress nounwind uwtable
define internal noundef nonnull align 8 dereferenceable(8) ptr @_ZNSt11_Tuple_implILm0EJPN3pro7details11compact_ptrIN5utils15LifetimeTracker7SessionENSt3pmr21polymorphic_allocatorISt4byteEEE7storageEZNS1_L8allocateISB_S9_JRS9_RKS5_EEEPT_RKT0_DpOT1_EUlSC_E_EE7_M_headERSQ_(ptr noundef nonnull align 8 dereferenceable(16) %0) #7 align 2 {
  %2 = alloca ptr, align 8
  store ptr %0, ptr %2, align 8
  %3 = load ptr, ptr %2, align 8
  %4 = getelementptr inbounds i8, ptr %3, i64 8
  %5 = call noundef nonnull align 8 dereferenceable(8) ptr @_ZNSt10_Head_baseILm0EPN3pro7details11compact_ptrIN5utils15LifetimeTracker7SessionENSt3pmr21polymorphic_allocatorISt4byteEEE7storageELb0EE7_M_headERSD_(ptr noundef nonnull align 8 dereferenceable(8) %4) #3
  ret ptr %5
}

; Function Attrs: mustprogress uwtable
define linkonce_odr dso_local void @_ZNSt3pmr15memory_resource10deallocateEPvmm(ptr noundef nonnull align 8 dereferenceable(8) %0, ptr noundef nonnull %1, i64 noundef %2, i64 noundef %3) #4 comdat align 2 {
  %5 = alloca ptr, align 8
  %6 = alloca ptr, align 8
  %7 = alloca i64, align 8
  %8 = alloca i64, align 8
  store ptr %0, ptr %5, align 8
  store ptr %1, ptr %6, align 8
  store i64 %2, ptr %7, align 8
  store i64 %3, ptr %8, align 8
  %9 = load ptr, ptr %5, align 8
  %10 = load ptr, ptr %6, align 8
  %11 = load i64, ptr %7, align 8
  %12 = load i64, ptr %8, align 8
  %13 = load ptr, ptr %9, align 8
  %14 = getelementptr inbounds ptr, ptr %13, i64 3
  %15 = load ptr, ptr %14, align 8
  call void %15(ptr noundef nonnull align 8 dereferenceable(8) %9, ptr noundef %10, i64 noundef %11, i64 noundef %12)
  ret void
}

; Function Attrs: mustprogress nounwind uwtable
define internal noundef nonnull align 8 dereferenceable(8) ptr @_ZSt3getILm1EJPN3pro7details11compact_ptrIN5utils15LifetimeTracker7SessionENSt3pmr21polymorphic_allocatorISt4byteEEE7storageEZNS1_L8allocateISB_S9_JRS9_RKS5_EEEPT_RKT0_DpOT1_EUlSC_E_EERNSt13tuple_elementIXT_ESt5tupleIJDpT0_EEE4typeERSU_(ptr noundef nonnull align 8 dereferenceable(16) %0) #7 {
  %2 = alloca ptr, align 8
  store ptr %0, ptr %2, align 8
  %3 = load ptr, ptr %2, align 8
  %4 = call noundef nonnull align 8 dereferenceable(8) ptr @_ZSt12__get_helperILm1EZN3pro7detailsL8allocateINS1_11compact_ptrIN5utils15LifetimeTracker7SessionENSt3pmr21polymorphic_allocatorISt4byteEEE7storageESA_JRSA_RKS6_EEEPT_RKT0_DpOT1_EUlPSC_E_JEERSI_RSt11_Tuple_implIXT_EJSI_DpSL_EE(ptr noundef nonnull align 8 dereferenceable(8) %3) #3
  ret ptr %4
}

; Function Attrs: mustprogress nounwind uwtable
define internal noundef nonnull align 8 dereferenceable(8) ptr @_ZSt12__get_helperILm0EPN3pro7details11compact_ptrIN5utils15LifetimeTracker7SessionENSt3pmr21polymorphic_allocatorISt4byteEEE7storageEJZNS1_L8allocateISB_S9_JRS9_RKS5_EEEPT_RKT0_DpOT1_EUlSC_E_EERSJ_RSt11_Tuple_implIXT_EJSJ_DpSM_EE(ptr noundef nonnull align 8 dereferenceable(16) %0) #7 {
  %2 = alloca ptr, align 8
  store ptr %0, ptr %2, align 8
  %3 = load ptr, ptr %2, align 8
  %4 = call noundef nonnull align 8 dereferenceable(8) ptr @_ZNSt11_Tuple_implILm0EJPN3pro7details11compact_ptrIN5utils15LifetimeTracker7SessionENSt3pmr21polymorphic_allocatorISt4byteEEE7storageEZNS1_L8allocateISB_S9_JRS9_RKS5_EEEPT_RKT0_DpOT1_EUlSC_E_EE7_M_headERSQ_(ptr noundef nonnull align 8 dereferenceable(16) %3) #3
  ret ptr %4
}

; Function Attrs: mustprogress nounwind uwtable
define linkonce_odr dso_local void @_ZNSt3pmr21polymorphic_allocatorIN3pro7details11compact_ptrIN5utils15LifetimeTracker7SessionENS0_ISt4byteEEE7storageEE10deallocateEPSA_m(ptr noundef nonnull align 8 dereferenceable(8) %0, ptr noundef nonnull %1, i64 noundef %2) #7 comdat align 2 personality ptr @__gxx_personality_v0 {
  %4 = alloca ptr, align 8
  %5 = alloca ptr, align 8
  %6 = alloca i64, align 8
  store ptr %0, ptr %4, align 8
  store ptr %1, ptr %5, align 8
  store i64 %2, ptr %6, align 8
  %7 = load ptr, ptr %4, align 8
  %8 = getelementptr inbounds %"class.std::pmr::polymorphic_allocator.97", ptr %7, i32 0, i32 0
  %9 = load ptr, ptr %8, align 8
  %10 = load ptr, ptr %5, align 8
  %11 = load i64, ptr %6, align 8
  %12 = mul i64 %11, 24
  invoke void @_ZNSt3pmr15memory_resource10deallocateEPvmm(ptr noundef nonnull align 8 dereferenceable(8) %9, ptr noundef %10, i64 noundef %12, i64 noundef 8)
          to label %13 unwind label %14

13:                                               ; preds = %3
  ret void

14:                                               ; preds = %3
  %15 = landingpad { ptr, i32 }
          catch ptr null
  %16 = extractvalue { ptr, i32 } %15, 0
  call void @__clang_call_terminate(ptr %16) #17
  unreachable
}

; Function Attrs: mustprogress nounwind uwtable
define internal noundef nonnull align 8 dereferenceable(8) ptr @_ZNSt15__uniq_ptr_implIN3pro7details11compact_ptrIN5utils15LifetimeTracker7SessionENSt3pmr21polymorphic_allocatorISt4byteEEE7storageEZNS1_L8allocateISB_S9_JRS9_RKS5_EEEPT_RKT0_DpOT1_EUlPSB_E_E10_M_deleterEv(ptr noundef nonnull align 8 dereferenceable(16) %0) #7 align 2 {
  %2 = alloca ptr, align 8
  store ptr %0, ptr %2, align 8
  %3 = load ptr, ptr %2, align 8
  %4 = getelementptr inbounds %"class.std::__uniq_ptr_impl.110", ptr %3, i32 0, i32 0
  %5 = call noundef nonnull align 8 dereferenceable(8) ptr @_ZSt3getILm1EJPN3pro7details11compact_ptrIN5utils15LifetimeTracker7SessionENSt3pmr21polymorphic_allocatorISt4byteEEE7storageEZNS1_L8allocateISB_S9_JRS9_RKS5_EEEPT_RKT0_DpOT1_EUlSC_E_EERNSt13tuple_elementIXT_ESt5tupleIJDpT0_EEE4typeERSU_(ptr noundef nonnull align 8 dereferenceable(16) %4) #3
  ret ptr %5
}

; Function Attrs: mustprogress nounwind uwtable
define internal noundef nonnull align 8 dereferenceable(8) ptr @_ZSt3getILm0EJPN3pro7details11compact_ptrIN5utils15LifetimeTracker7SessionENSt3pmr21polymorphic_allocatorISt4byteEEE7storageEZNS1_L8allocateISB_S9_JRS9_RKS5_EEEPT_RKT0_DpOT1_EUlSC_E_EERNSt13tuple_elementIXT_ESt5tupleIJDpT0_EEE4typeERSU_(ptr noundef nonnull align 8 dereferenceable(16) %0) #7 {
  %2 = alloca ptr, align 8
  store ptr %0, ptr %2, align 8
  %3 = load ptr, ptr %2, align 8
  %4 = call noundef nonnull align 8 dereferenceable(8) ptr @_ZSt12__get_helperILm0EPN3pro7details11compact_ptrIN5utils15LifetimeTracker7SessionENSt3pmr21polymorphic_allocatorISt4byteEEE7storageEJZNS1_L8allocateISB_S9_JRS9_RKS5_EEEPT_RKT0_DpOT1_EUlSC_E_EERSJ_RSt11_Tuple_implIXT_EJSJ_DpSM_EE(ptr noundef nonnull align 8 dereferenceable(16) %3) #3
  ret ptr %4
}

; Function Attrs: mustprogress nounwind uwtable
define internal void @_ZZN3pro7detailsL8allocateINS0_11compact_ptrIN5utils15LifetimeTracker7SessionENSt3pmr21polymorphic_allocatorISt4byteEEE7storageES9_JRS9_RKS5_EEEPT_RKT0_DpOT1_ENKUlPSB_E_clESN_(ptr noundef nonnull align 8 dereferenceable(8) %0, ptr noundef %1) #7 align 2 {
  %3 = alloca ptr, align 8
  %4 = alloca ptr, align 8
  store ptr %0, ptr %3, align 8
  store ptr %1, ptr %4, align 8
  %5 = load ptr, ptr %3, align 8
  %6 = getelementptr inbounds %class.anon.107, ptr %5, i32 0, i32 0
  %7 = load ptr, ptr %6, align 8
  %8 = load ptr, ptr %4, align 8
  call void @_ZNSt3pmr21polymorphic_allocatorIN3pro7details11compact_ptrIN5utils15LifetimeTracker7SessionENS0_ISt4byteEEE7storageEE10deallocateEPSA_m(ptr noundef nonnull align 8 dereferenceable(8) %7, ptr noundef %8, i64 noundef 1) #3
  ret void
}

; Function Attrs: mustprogress nounwind uwtable
define internal noundef nonnull align 8 dereferenceable(8) ptr @_ZNSt10unique_ptrIN3pro7details11compact_ptrIN5utils15LifetimeTracker7SessionENSt3pmr21polymorphic_allocatorISt4byteEEE7storageEZNS1_L8allocateISB_S9_JRS9_RKS5_EEEPT_RKT0_DpOT1_EUlPSB_E_E11get_deleterEv(ptr noundef nonnull align 8 dereferenceable(16) %0) #7 align 2 {
  %2 = alloca ptr, align 8
  store ptr %0, ptr %2, align 8
  %3 = load ptr, ptr %2, align 8
  %4 = getelementptr inbounds %"class.std::unique_ptr.108", ptr %3, i32 0, i32 0
  %5 = call noundef nonnull align 8 dereferenceable(8) ptr @_ZNSt15__uniq_ptr_implIN3pro7details11compact_ptrIN5utils15LifetimeTracker7SessionENSt3pmr21polymorphic_allocatorISt4byteEEE7storageEZNS1_L8allocateISB_S9_JRS9_RKS5_EEEPT_RKT0_DpOT1_EUlPSB_E_E10_M_deleterEv(ptr noundef nonnull align 8 dereferenceable(16) %4) #3
  ret ptr %5
}

; Function Attrs: mustprogress nounwind uwtable
define internal noundef nonnull align 8 dereferenceable(8) ptr @_ZNSt15__uniq_ptr_implIN3pro7details11compact_ptrIN5utils15LifetimeTracker7SessionENSt3pmr21polymorphic_allocatorISt4byteEEE7storageEZNS1_L8allocateISB_S9_JRS9_RKS5_EEEPT_RKT0_DpOT1_EUlPSB_E_E6_M_ptrEv(ptr noundef nonnull align 8 dereferenceable(16) %0) #7 align 2 {
  %2 = alloca ptr, align 8
  store ptr %0, ptr %2, align 8
  %3 = load ptr, ptr %2, align 8
  %4 = getelementptr inbounds %"class.std::__uniq_ptr_impl.110", ptr %3, i32 0, i32 0
  %5 = call noundef nonnull align 8 dereferenceable(8) ptr @_ZSt3getILm0EJPN3pro7details11compact_ptrIN5utils15LifetimeTracker7SessionENSt3pmr21polymorphic_allocatorISt4byteEEE7storageEZNS1_L8allocateISB_S9_JRS9_RKS5_EEEPT_RKT0_DpOT1_EUlSC_E_EERNSt13tuple_elementIXT_ESt5tupleIJDpT0_EEE4typeERSU_(ptr noundef nonnull align 8 dereferenceable(16) %4) #3
  ret ptr %5
}

; Function Attrs: mustprogress nounwind uwtable
define internal void @_ZNSt10unique_ptrIN3pro7details11compact_ptrIN5utils15LifetimeTracker7SessionENSt3pmr21polymorphic_allocatorISt4byteEEE7storageEZNS1_L8allocateISB_S9_JRS9_RKS5_EEEPT_RKT0_DpOT1_EUlPSB_E_ED2Ev(ptr noundef nonnull align 8 dereferenceable(16) %0) unnamed_addr #7 align 2 personality ptr @__gxx_personality_v0 {
  %2 = alloca ptr, align 8
  %3 = alloca ptr, align 8
  store ptr %0, ptr %2, align 8
  %4 = load ptr, ptr %2, align 8
  %5 = getelementptr inbounds %"class.std::unique_ptr.108", ptr %4, i32 0, i32 0
  %6 = call noundef nonnull align 8 dereferenceable(8) ptr @_ZNSt15__uniq_ptr_implIN3pro7details11compact_ptrIN5utils15LifetimeTracker7SessionENSt3pmr21polymorphic_allocatorISt4byteEEE7storageEZNS1_L8allocateISB_S9_JRS9_RKS5_EEEPT_RKT0_DpOT1_EUlPSB_E_E6_M_ptrEv(ptr noundef nonnull align 8 dereferenceable(16) %5) #3
  store ptr %6, ptr %3, align 8
  %7 = load ptr, ptr %3, align 8
  %8 = load ptr, ptr %7, align 8
  %9 = icmp ne ptr %8, null
  br i1 %9, label %10, label %15

10:                                               ; preds = %1
  %11 = call noundef nonnull align 8 dereferenceable(8) ptr @_ZNSt10unique_ptrIN3pro7details11compact_ptrIN5utils15LifetimeTracker7SessionENSt3pmr21polymorphic_allocatorISt4byteEEE7storageEZNS1_L8allocateISB_S9_JRS9_RKS5_EEEPT_RKT0_DpOT1_EUlPSB_E_E11get_deleterEv(ptr noundef nonnull align 8 dereferenceable(16) %4) #3
  %12 = load ptr, ptr %3, align 8
  %13 = load ptr, ptr %12, align 8
  invoke void @_ZZN3pro7detailsL8allocateINS0_11compact_ptrIN5utils15LifetimeTracker7SessionENSt3pmr21polymorphic_allocatorISt4byteEEE7storageES9_JRS9_RKS5_EEEPT_RKT0_DpOT1_ENKUlPSB_E_clESN_(ptr noundef nonnull align 8 dereferenceable(8) %11, ptr noundef %13)
          to label %14 unwind label %17

14:                                               ; preds = %10
  br label %15

15:                                               ; preds = %14, %1
  %16 = load ptr, ptr %3, align 8
  store ptr null, ptr %16, align 8
  ret void

17:                                               ; preds = %10
  %18 = landingpad { ptr, i32 }
          catch ptr null
  %19 = extractvalue { ptr, i32 } %18, 0
  call void @__clang_call_terminate(ptr %19) #17
  unreachable
}